; Function Attrs: nounwind uwtable
define dso_local range(i32 82, 81) i32 @Curl_pp_flushsend(ptr noundef %0, ptr noundef captures(none) %1) local_unnamed_addr #0 {
  %3 = alloca i64, align 8
  call void @llvm.lifetime.start.p0(i64 8, ptr nonnull %3) #10
  %4 = getelementptr inbounds nuw i8, ptr %1, i64 24
  %5 = load i64, ptr %4, align 8, !tbaa !84
  %.not = icmp eq i64 %5, 0
  br i1 %.not, label %25, label %6

6:                                                ; preds = %2
  %7 = getelementptr inbounds nuw i8, ptr %1, i64 16
  %8 = load ptr, ptr %7, align 8, !tbaa !89
  %9 = getelementptr inbounds nuw i8, ptr %1, i64 32
  %10 = load i64, ptr %9, align 8, !tbaa !90
  %11 = getelementptr inbounds nuw i8, ptr %8, i64 %10
  %12 = sub i64 0, %5
  %13 = getelementptr inbounds i8, ptr %11, i64 %12
  %14 = call i32 @Curl_conn_send(ptr noundef %0, i32 noundef 0, ptr noundef nonnull %13, i64 noundef %5, i1 noundef zeroext false, ptr noundef nonnull %3) #10
  switch i32 %14, label %25 [
    i32 81, label %.thread
    i32 0, label %._crit_edge
  ]

._crit_edge:                                      ; preds = %6
  %.pre = load i64, ptr %3, align 8, !tbaa !87
  br label %15

.thread:                                          ; preds = %6
  store i64 0, ptr %3, align 8, !tbaa !87
  br label %15

15:                                               ; preds = %._crit_edge, %.thread
  %16 = phi i64 [ %.pre, %._crit_edge ], [ 0, %.thread ]
  %17 = load i64, ptr %4, align 8, !tbaa !84
  %.not20 = icmp eq i64 %16, %17
  br i1 %.not20, label %20, label %18

18:                                               ; preds = %15
  %19 = sub i64 %17, %16
  store i64 %19, ptr %4, align 8, !tbaa !84
  br label %25

20:                                               ; preds = %15
  %21 = getelementptr inbounds nuw i8, ptr %1, i64 40
  call void @llvm.memset.p0.i64(ptr noundef nonnull align 8 dereferenceable(24) %7, i8 0, i64 24, i1 false)
  %22 = call { i64, i32 } @Curl_now() #10
  %23 = extractvalue { i64, i32 } %22, 0
  %24 = extractvalue { i64, i32 } %22, 1
  store i64 %23, ptr %21, align 8, !tbaa !87
  %.sroa.4.0..sroa_idx = getelementptr inbounds nuw i8, ptr %1, i64 48
  store i32 %24, ptr %.sroa.4.0..sroa_idx, align 8, !tbaa !82
  br label %25

25:                                               ; preds = %6, %18, %20, %2
  %.0 = phi i32 [ 0, %2 ], [ 0, %20 ], [ 0, %18 ], [ %14, %6 ]
  call void @llvm.lifetime.end.p0(i64 8, ptr nonnull %3) #10
  ret i32 %.0
}